; Function Attrs: mustprogress nofree nounwind willreturn memory(write) uwtable
define internal noundef double @_ZN8QuantLib12_GLOBAL__N_13f_3Edd(double noundef %_nu, double noundef %_lambda) #13 {
entry:
  %call.i = tail call noundef double @pow(double noundef %_lambda, double noundef 3.000000e+00) #35, !tbaa !57
  %square = fmul double %_lambda, %_lambda
  %mul = fmul double %square, 3.000000e+00
  %add = fadd double %_nu, 4.000000e+00
  %0 = tail call double @llvm.fmuladd.f64(double %mul, double %add, double %call.i)
  %mul3 = fmul double %_lambda, 3.000000e+00
  %1 = tail call double @llvm.fmuladd.f64(double %_nu, double 6.000000e+00, double 8.000000e+00)
  %square11 = fmul double %_nu, %_nu
  %add6 = fadd double %1, %square11
  %2 = tail call double @llvm.fmuladd.f64(double %mul3, double %add6, double %0)
  %3 = tail call double @llvm.fmuladd.f64(double %_nu, double %add6, double %2)
  ret double %3
}